target datalayout = "e-m:e-p270:32:32-p271:32:32-p272:64:64-i64:64-i128:128-f80:128-n8:16:32:64-S128"
target triple = "x86_64-unknown-linux-gnu"

%struct.UEnumeration = type { ptr, ptr, ptr, ptr, ptr, ptr, ptr }
%struct.UResourceBundle = type { ptr, ptr, ptr, ptr, ptr, [64 x i8], i32, i32, i8, i8, i32, i32, i32, i32 }
%struct.ULocalesContext = type { %struct.UResourceBundle, %struct.UResourceBundle }

; Function Attrs: mustprogress uwtable
define void @ures_close_75(ptr noundef %resB) #1 {
entry:
  %resB.addr = alloca ptr, align 8
  store ptr %resB, ptr %resB.addr, align 8
  %0 = load ptr, ptr %resB.addr, align 8
  call void @_ZL16ures_closeBundleP15UResourceBundlea(ptr noundef %0, i8 noundef signext 1)
  ret void
}

; Function Attrs: mustprogress uwtable
define internal void @_ZL21ures_loc_closeLocalesP12UEnumeration(ptr noundef %enumerator) #1 {
entry:
  %enumerator.addr = alloca ptr, align 8
  %ctx = alloca ptr, align 8
  store ptr %enumerator, ptr %enumerator.addr, align 8
  %0 = load ptr, ptr %enumerator.addr, align 8
  %context = getelementptr inbounds %struct.UEnumeration, ptr %0, i32 0, i32 1
  %1 = load ptr, ptr %context, align 8
  store ptr %1, ptr %ctx, align 8
  %2 = load ptr, ptr %ctx, align 8
  %curr = getelementptr inbounds %struct.ULocalesContext, ptr %2, i32 0, i32 1
  call void @ures_close_75(ptr noundef %curr)
  %3 = load ptr, ptr %ctx, align 8
  %installed = getelementptr inbounds %struct.ULocalesContext, ptr %3, i32 0, i32 0
  call void @ures_close_75(ptr noundef %installed)
  %4 = load ptr, ptr %ctx, align 8
  call void @uprv_free_75(ptr noundef %4)
  %5 = load ptr, ptr %enumerator.addr, align 8
  call void @uprv_free_75(ptr noundef %5)
  ret void
}