; Function Attrs: mustprogress uwtable
define internal void @_ZL21ures_loc_closeLocalesP12UEnumeration(ptr noundef %enumerator) #1 {
entry:
  %context = getelementptr inbounds i8, ptr %enumerator, i64 8
  %0 = load ptr, ptr %context, align 8
  %curr = getelementptr inbounds i8, ptr %0, i64 136
  tail call fastcc void @_ZL16ures_closeBundleP15UResourceBundlea(ptr noundef nonnull %curr, i8 noundef signext 1)
  tail call fastcc void @_ZL16ures_closeBundleP15UResourceBundlea(ptr noundef %0, i8 noundef signext 1)
  tail call void @uprv_free_75(ptr noundef %0)
  tail call void @uprv_free_75(ptr noundef %enumerator)
  ret void
}